target datalayout = "e-m:e-p270:32:32-p271:32:32-p272:64:64-i64:64-i128:128-f80:128-n8:16:32:64-S128"
target triple = "x86_64-pc-linux-gnu"

%struct.grpc_slice_buffer = type { ptr, ptr, i64, i64, i64, [6 x %struct.grpc_slice] }
%struct.grpc_slice = type { ptr, %"union.grpc_slice::grpc_slice_data" }
%"union.grpc_slice::grpc_slice_data" = type { %"struct.grpc_slice::grpc_slice_data::grpc_slice_refcounted", [8 x i8] }
%"struct.grpc_slice::grpc_slice_data::grpc_slice_refcounted" = type { i64, ptr }
%struct.alts_grpc_record_protocol = type { ptr, ptr, %struct.grpc_slice_buffer, ptr, i64, i64, ptr, i64 }
%struct.alts_grpc_record_protocol_vtable = type { ptr, ptr, ptr }

; Function Attrs: mustprogress uwtable
define noundef i32 @_Z33alts_grpc_record_protocol_protectP25alts_grpc_record_protocolP17grpc_slice_bufferS2_(ptr noundef %0, ptr noundef %1, ptr noundef %2) #4 {
  %4 = alloca i32, align 4
  %5 = alloca ptr, align 8
  %6 = alloca ptr, align 8
  %7 = alloca ptr, align 8
  store ptr %0, ptr %5, align 8, !tbaa !3
  store ptr %1, ptr %6, align 8, !tbaa !8
  store ptr %2, ptr %7, align 8, !tbaa !8
  %8 = load ptr, ptr %5, align 8, !tbaa !3
  %9 = icmp eq ptr %8, null
  br i1 %9, label %21, label %10

10:                                               ; preds = %3
  %11 = load ptr, ptr %5, align 8, !tbaa !3
  %12 = getelementptr inbounds nuw %struct.alts_grpc_record_protocol, ptr %11, i32 0, i32 0
  %13 = load ptr, ptr %12, align 8, !tbaa !68
  %14 = icmp eq ptr %13, null
  br i1 %14, label %21, label %15

15:                                               ; preds = %10
  %16 = load ptr, ptr %6, align 8, !tbaa !8
  %17 = icmp eq ptr %16, null
  br i1 %17, label %21, label %18

18:                                               ; preds = %15
  %19 = load ptr, ptr %7, align 8, !tbaa !8
  %20 = icmp eq ptr %19, null
  br i1 %20, label %21, label %22

21:                                               ; preds = %18, %15, %10, %3
  store i32 2, ptr %4, align 4
  br label %40

22:                                               ; preds = %18
  %23 = load ptr, ptr %5, align 8, !tbaa !3
  %24 = getelementptr inbounds nuw %struct.alts_grpc_record_protocol, ptr %23, i32 0, i32 0
  %25 = load ptr, ptr %24, align 8, !tbaa !68
  %26 = getelementptr inbounds nuw %struct.alts_grpc_record_protocol_vtable, ptr %25, i32 0, i32 0
  %27 = load ptr, ptr %26, align 8, !tbaa !69
  %28 = icmp eq ptr %27, null
  br i1 %28, label %29, label %30

29:                                               ; preds = %22
  store i32 6, ptr %4, align 4
  br label %40

30:                                               ; preds = %22
  %31 = load ptr, ptr %5, align 8, !tbaa !3
  %32 = getelementptr inbounds nuw %struct.alts_grpc_record_protocol, ptr %31, i32 0, i32 0
  %33 = load ptr, ptr %32, align 8, !tbaa !68
  %34 = getelementptr inbounds nuw %struct.alts_grpc_record_protocol_vtable, ptr %33, i32 0, i32 0
  %35 = load ptr, ptr %34, align 8, !tbaa !69
  %36 = load ptr, ptr %5, align 8, !tbaa !3
  %37 = load ptr, ptr %6, align 8, !tbaa !8
  %38 = load ptr, ptr %7, align 8, !tbaa !8
  %39 = call noundef i32 %35(ptr noundef %36, ptr noundef %37, ptr noundef %38)
  store i32 %39, ptr %4, align 4
  br label %40

40:                                               ; preds = %30, %29, %21
  %41 = load i32, ptr %4, align 4
  ret i32 %41
}