; Function Attrs: mustprogress uwtable
define noundef i32 @_Z33alts_grpc_record_protocol_protectP25alts_grpc_record_protocolP17grpc_slice_bufferS2_(ptr noundef %0, ptr noundef %1, ptr noundef %2) local_unnamed_addr #3 {
  %4 = icmp eq ptr %0, null
  br i1 %4, label %15, label %5

5:                                                ; preds = %3
  %6 = load ptr, ptr %0, align 8, !tbaa !42
  %7 = icmp eq ptr %6, null
  %8 = icmp eq ptr %1, null
  %or.cond = or i1 %8, %7
  %9 = icmp eq ptr %2, null
  %or.cond3 = or i1 %9, %or.cond
  br i1 %or.cond3, label %15, label %10

10:                                               ; preds = %5
  %11 = load ptr, ptr %6, align 8, !tbaa !43
  %12 = icmp eq ptr %11, null
  br i1 %12, label %15, label %13

13:                                               ; preds = %10
  %14 = tail call noundef i32 %11(ptr noundef nonnull %0, ptr noundef nonnull %1, ptr noundef nonnull %2)
  br label %15

15:                                               ; preds = %10, %3, %5, %13
  %.0 = phi i32 [ %14, %13 ], [ 2, %5 ], [ 2, %3 ], [ 6, %10 ]
  ret i32 %.0
}